; Function Attrs: mustprogress uwtable
define void @unumf_resultGetAllFieldPositions_77(ptr noundef %0, ptr noundef %1, ptr noundef %2) local_unnamed_addr #1 personality ptr @__gxx_personality_v0 {
  %4 = alloca %"class.icu_77::FieldPositionIteratorHandler", align 8
  %5 = load i32, ptr %2, align 4, !tbaa !13
  %6 = icmp slt i32 %5, 1
  br i1 %6, label %7, label %_ZN6icu_7713IcuCApiHelperI16UFormattedNumberNS_6number4impl20UFormattedNumberImplELi1178881536EE8validateEPKS1_R10UErrorCode.exit.thread

7:                                                ; preds = %3
  %8 = icmp eq ptr %0, null
  br i1 %8, label %.sink.split.i, label %9

9:                                                ; preds = %7
  %10 = getelementptr inbounds nuw i8, ptr %0, i64 16
  %11 = load i32, ptr %10, align 4, !tbaa !20
  %.not9.i = icmp eq i32 %11, 1178881536
  br i1 %.not9.i, label %_ZN6icu_7713IcuCApiHelperI16UFormattedNumberNS_6number4impl20UFormattedNumberImplELi1178881536EE8validateEPKS1_R10UErrorCode.exit, label %.sink.split.i

.sink.split.i:                                    ; preds = %9, %7
  %.sink.i = phi i32 [ 1, %7 ], [ 3, %9 ]
  store i32 %.sink.i, ptr %2, align 4, !tbaa !13
  br label %_ZN6icu_7713IcuCApiHelperI16UFormattedNumberNS_6number4impl20UFormattedNumberImplELi1178881536EE8validateEPKS1_R10UErrorCode.exit.thread

_ZN6icu_7713IcuCApiHelperI16UFormattedNumberNS_6number4impl20UFormattedNumberImplELi1178881536EE8validateEPKS1_R10UErrorCode.exit: ; preds = %9
  %12 = icmp eq ptr %1, null
  br i1 %12, label %13, label %14

13:                                               ; preds = %_ZN6icu_7713IcuCApiHelperI16UFormattedNumberNS_6number4impl20UFormattedNumberImplELi1178881536EE8validateEPKS1_R10UErrorCode.exit
  store i32 1, ptr %2, align 4, !tbaa !13
  br label %_ZN6icu_7713IcuCApiHelperI16UFormattedNumberNS_6number4impl20UFormattedNumberImplELi1178881536EE8validateEPKS1_R10UErrorCode.exit.thread

14:                                               ; preds = %_ZN6icu_7713IcuCApiHelperI16UFormattedNumberNS_6number4impl20UFormattedNumberImplELi1178881536EE8validateEPKS1_R10UErrorCode.exit
  call void @llvm.lifetime.start.p0(i64 40, ptr nonnull %4) #15
  call void @_ZN6icu_7728FieldPositionIteratorHandlerC1EPNS_21FieldPositionIteratorER10UErrorCode(ptr noundef nonnull align 8 dereferenceable(40) %4, ptr noundef nonnull %1, ptr noundef nonnull align 4 dereferenceable(4) %2)
  %15 = getelementptr inbounds nuw i8, ptr %0, i64 48
  invoke void @_ZNK6icu_7731FormattedValueStringBuilderImpl20getAllFieldPositionsERNS_28FieldPositionIteratorHandlerER10UErrorCode(ptr noundef nonnull align 8 dereferenceable(300) %15, ptr noundef nonnull align 8 dereferenceable(40) %4, ptr noundef nonnull align 4 dereferenceable(4) %2)
          to label %16 unwind label %17

16:                                               ; preds = %14
  call void @_ZN6icu_7728FieldPositionIteratorHandlerD1Ev(ptr noundef nonnull align 8 dereferenceable(40) %4) #15
  call void @llvm.lifetime.end.p0(i64 40, ptr nonnull %4) #15
  br label %_ZN6icu_7713IcuCApiHelperI16UFormattedNumberNS_6number4impl20UFormattedNumberImplELi1178881536EE8validateEPKS1_R10UErrorCode.exit.thread

_ZN6icu_7713IcuCApiHelperI16UFormattedNumberNS_6number4impl20UFormattedNumberImplELi1178881536EE8validateEPKS1_R10UErrorCode.exit.thread: ; preds = %.sink.split.i, %3, %16, %13
  ret void

17:                                               ; preds = %14
  %18 = landingpad { ptr, i32 }
          cleanup
  call void @_ZN6icu_7728FieldPositionIteratorHandlerD1Ev(ptr noundef nonnull align 8 dereferenceable(40) %4) #15
  call void @llvm.lifetime.end.p0(i64 40, ptr nonnull %4) #15
  resume { ptr, i32 } %18
}